(dp0
S'METTS MARK'
p1
(dp2
S'to_messages'
p3
I807
sS'deferral_payments'
p4
S'NaN'
p5
sS'expenses'
p6
I94299
sS'poi'
p7
I00
sS'deferred_income'
p8
g5
sS'email_address'
p9
S'mark.metts@enron.com'
p10
sS'long_term_incentive'
p11
g5
sS'total_poi_messages'
p12
I39
sS'bonus_salary_ratio'
p13
I1
sS'restricted_stock_deferred'
p14
g5
sS'salary_square'
p15
I133800860944
sS'shared_receipt_with_poi'
p16
I702
sS'loan_advances'
p17
g5
sS'from_messages'
p18
I29
sS'other'
p19
I1740
sS'director_fees'
p20
g5
sS'ratio_of_to_poi_messages'
p21
F0.034482758620689655
sS'bonus'
p22
I600000
sS'total_stock_value'
p23
I585062
sS'incentive_square'
p24
I0
sS'from_poi_to_this_person'
p25
I38
sS'bonus_square'
p26
I360000000000
sS'from_this_person_to_poi'
p27
I1
sS'total_stock_value_square'
p28
I342297543844
sS'restricted_stock'
p29
I585062
sS'salary'
p30
I365788
sS'total_payments'
p31
I1061827
sS'incentive_cube'
p32
I0
sS'ratio_of_from_poi_messages'
p33
F0.04708798017348203
sS'exercised_stock_options'
p34
g5
ssS'BAXTER JOHN C'
p35
(dp36
g3
I0
sg4
I1295738
sg6
I11200
sg7
I00
sg8
I-1386055
sg9
g5
sg11
I1586055
sg12
I0
sg13
I4
sg14
g5
sg15
I71343478404
sg16
g5
sg17
g5
sg18
I0
sg19
I2660303
sg20
g5
sg21
I0
sg22
I1200000
sg23
I10623258
sg24
I2515570463025
sg25
I0
sg26
I1440000000000
sg27
I0
sg28
I112853610534564
sg29
I3942714
sg30
I267102
sg31
I5634343
sg32
I3989833110733116375
sg33
I0
sg34
I6680544
ssS'ELLIOTT STEVEN'
p37
(dp38
g3
I0
sg4
g5
sg6
I78552
sg7
I00
sg8
I-400729
sg9
S'steven.elliott@enron.com'
p39
sg11
g5
sg12
I0
sg13
I2
sg14
g5
sg15
I29220825481
sg16
g5
sg17
g5
sg18
I0
sg19
I12961
sg20
g5
sg21
I0
sg22
I350000
sg23
I6678735
sg24
I0
sg25
I0
sg26
I122500000000
sg27
I0
sg28
I44605501200225
sg29
I1788391
sg30
I170941
sg31
I211725
sg32
I0
sg33
I0
sg34
I4890344
ssS'CORDES WILLIAM R'
p40
(dp41
g3
I764
sg4
g5
sg6
g5
sg7
I00
sg8
g5
sg9
S'bill.cordes@enron.com'
p42
sg11
g5
sg12
I10
sg13
I0
sg14
g5
sg15
I0
sg16
I58
sg17
g5
sg18
I12
sg19
g5
sg20
g5
sg21
F0.0
sg22
g5
sg23
I1038185
sg24
I0
sg25
I10
sg26
I0
sg27
I0
sg28
I1077828094225
sg29
I386335
sg30
g5
sg31
g5
sg32
I0
sg33
F0.013089005235602094
sg34
I651850
ssS'HANNON KEVIN P'
p43
(dp44
g3
I1045
sg4
g5
sg6
I34039
sg7
I01
sg8
I-3117011
sg9
S'kevin.hannon@enron.com'
p45
sg11
I1617011
sg12
I53
sg13
I6
sg14
g5
sg15
I59191483849
sg16
I1035
sg17
g5
sg18
I32
sg19
I11350
sg20
g5
sg21
F0.65625
sg22
I1500000
sg23
I6391065
sg24
I2614724574121
sg25
I32
sg26
I2250000000000
sg27
I21
sg28
I40845711834225
sg29
I853064
sg30
I243293
sg31
I288682
sg32
I4228038398323972331
sg33
F0.03062200956937799
sg34
I5538001
ssS'MORDAUNT KRISTINA M'
p46
(dp47
g3
I0
sg4
g5
sg6
I35018
sg7
I00
sg8
g5
sg9
S'kristina.mordaunt@enron.com'
p48
sg11
g5
sg12
I0
sg13
I1
sg14
g5
sg15
I71338670649
sg16
g5
sg17
g5
sg18
I0
sg19
I1411
sg20
g5
sg21
I0
sg22
I325000
sg23
I208510
sg24
I0
sg25
I0
sg26
I105625000000
sg27
I0
sg28
I43476420100
sg29
I208510
sg30
I267093
sg31
I628522
sg32
I0
sg33
I0
sg34
g5
ssS'MEYER ROCKFORD G'
p49
(dp50
g3
I232
sg4
I1848227
sg6
g5
sg7
I00
sg8
g5
sg9
S'rockford.meyer@enron.com'
p51
sg11
g5
sg12
I0
sg13
I0
sg14
g5
sg15
I0
sg16
I22
sg17
g5
sg18
I28
sg19
g5
sg20
g5
sg21
F0.0
sg22
g5
sg23
I955873
sg24
I0
sg25
I0
sg26
I0
sg27
I0
sg28
I913693192129
sg29
I462384
sg30
g5
sg31
I1848227
sg32
I0
sg33
F0.0
sg34
I493489
ssS'MCMAHON JEFFREY'
p52
(dp53
g3
I2355
sg4
g5
sg6
I137108
sg7
I00
sg8
g5
sg9
S'jeffrey.mcmahon@enron.com'
p54
sg11
I694862
sg12
I84
sg13
I7
sg14
g5
sg15
I137231720704
sg16
I2228
sg17
g5
sg18
I48
sg19
I297353
sg20
g5
sg21
F0.5416666666666666
sg22
I2600000
sg23
I1662855
sg24
I482833199044
sg25
I58
sg26
I6760000000000
sg27
I26
sg28
I2765086751025
sg29
I558801
sg30
I370448
sg31
I4099771
sg32
I335502442354111928
sg33
F0.024628450106157114
sg34
I1104054
ssS'HORTON STANLEY C'
p55
(dp56
g3
I2350
sg4
I3131860
sg6
g5
sg7
I00
sg8
g5
sg9
S'stanley.horton@enron.com'
p57
sg11
g5
sg12
I59
sg13
I0
sg14
g5
sg15
I0
sg16
I1074
sg17
g5
sg18
I1073
sg19
g5
sg20
g5
sg21
F0.013979496738117428
sg22
g5
sg23
I7256648
sg24
I0
sg25
I44
sg26
I0
sg27
I15
sg28
I52658940195904
sg29
I2046079
sg30
g5
sg31
I3131860
sg32
I0
sg33
F0.01872340425531915
sg34
I5210569
ssS'PIPER GREGORY F'
p58
(dp59
g3
I1238
sg4
I1130036
sg6
I43057
sg7
I00
sg8
I-33333
sg9
S'greg.piper@enron.com'
p60
sg11
g5
sg12
I109
sg13
I2
sg14
I-409554
sg15
I38844862281
sg16
I742
sg17
g5
sg18
I222
sg19
I778
sg20
g5
sg21
F0.21621621621621623
sg22
I400000
sg23
I880290
sg24
I0
sg25
I61
sg26
I160000000000
sg27
I48
sg28
I774910484100
sg29
I409554
sg30
I197091
sg31
I1737629
sg32
I0
sg33
F0.049273021001615507
sg34
I880290
ssS'HUMPHREY GENE E'
p61
(dp62
g3
I128
sg4
I2964506
sg6
I4994
sg7
I00
sg8
g5
sg9
S'gene.humphrey@enron.com'
p63
sg11
g5
sg12
I27
sg13
I0
sg14
g5
sg15
I17088764176
sg16
I119
sg17
g5
sg18
I17
sg19
g5
sg20
g5
sg21
F1.0
sg22
g5
sg23
I2282768
sg24
I0
sg25
I10
sg26
I0
sg27
I17
sg28
I5211029741824
sg29
g5
sg30
I130724
sg31
I3100224
sg32
I0
sg33
F0.078125
sg34
I2282768
ssS'UMANOFF ADAM S'
p64
(dp65
g3
I111
sg4
g5
sg6
I53122
sg7
I00
sg8
g5
sg9
S'adam.umanoff@enron.com'
p66
sg11
g5
sg12
I12
sg13
I2
sg14
g5
sg15
I83283610921
sg16
I41
sg17
g5
sg18
I18
sg19
g5
sg20
g5
sg21
F0.0
sg22
I788750
sg23
g5
sg24
I0
sg25
I12
sg26
I622126562500
sg27
I0
sg28
I0
sg29
g5
sg30
I288589
sg31
I1130461
sg32
I0
sg33
F0.10810810810810811
sg34
g5
ssS'BLACHMAN JEREMY M'
p67
(dp68
g3
I2475
sg4
g5
sg6
I84208
sg7
I00
sg8
g5
sg9
S'jeremy.blachman@enron.com'
p69
sg11
I831809
sg12
I27
sg13
I3
sg14
g5
sg15
I61775114116
sg16
I2326
sg17
g5
sg18
I14
sg19
I272
sg20
g5
sg21
F0.14285714285714285
sg22
I850000
sg23
I954354
sg24
I691906212481
sg25
I25
sg26
I722500000000
sg27
I2
sg28
I910791557316
sg29
I189041
sg30
I248546
sg31
I2014835
sg32
I575533814697608129
sg33
F0.010101010101010102
sg34
I765313
ssS'SUNDE MARTIN'
p70
(dp71
g3
I2647
sg4
g5
sg6
g5
sg7
I00
sg8
g5
sg9
S'marty.sunde@enron.com'
p72
sg11
I476451
sg12
I50
sg13
I2
sg14
g5
sg15
I66299040196
sg16
I2565
sg17
g5
sg18
I38
sg19
I111122
sg20
g5
sg21
F0.34210526315789475
sg22
I700000
sg23
I698920
sg24
I227005555401
sg25
I37
sg26
I490000000000
sg27
I13
sg28
I488489166400
sg29
I698920
sg30
I257486
sg31
I1545059
sg32
I108157023876361851
sg33
F0.013978088401964487
sg34
g5
ssS'GIBBS DANA R'
p73
(dp74
g3
I169
sg4
I504610
sg6
g5
sg7
I00
sg8
g5
sg9
S'dana.gibbs@enron.com'
p75
sg11
I461912
sg12
I0
sg13
I0
sg14
g5
sg15
I0
sg16
I23
sg17
g5
sg18
I12
sg19
g5
sg20
g5
sg21
F0.0
sg22
g5
sg23
I2218275
sg24
I213362695744
sg25
I0
sg26
I0
sg27
I0
sg28
I4920743975625
sg29
g5
sg30
g5
sg31
I966522
sg32
I98554789516502528
sg33
F0.0
sg34
I2218275
ssS'LOWRY CHARLES P'
p76
(dp77
g3
I0
sg4
g5
sg6
g5
sg7
I00
sg8
g5
sg9
g5
sg11
g5
sg12
I0
sg13
I0
sg14
I-153686
sg15
I0
sg16
g5
sg17
g5
sg18
I0
sg19
g5
sg20
g5
sg21
I0
sg22
g5
sg23
I372205
sg24
I0
sg25
I0
sg26
I0
sg27
I0
sg28
I138536562025
sg29
I153686
sg30
g5
sg31
g5
sg32
I0
sg33
I0
sg34
I372205
ssS'COLWELL WESLEY'
p78
(dp79
g3
I1758
sg4
I27610
sg6
I16514
sg7
I01
sg8
I-144062
sg9
S'wes.colwell@enron.com'
p80
sg11
g5
sg12
I251
sg13
I4
sg14
g5
sg15
I83256485764
sg16
I1132
sg17
g5
sg18
I40
sg19
I101740
sg20
g5
sg21
F0.275
sg22
I1200000
sg23
I698242
sg24
I0
sg25
I240
sg26
I1440000000000
sg27
I11
sg28
I487541890564
sg29
I698242
sg30
I288542
sg31
I1490344
sg32
I0
sg33
F0.13651877133105803
sg34
g5
ssS'MULLER MARK S'
p81
(dp82
g3
I136
sg4
I842924
sg6
g5
sg7
I00
sg8
I-719000
sg9
S's..muller@enron.com'
p83
sg11
I1725545
sg12
I12
sg13
I4
sg14
g5
sg15
I63329735716
sg16
I114
sg17
g5
sg18
I16
sg19
I947
sg20
g5
sg21
F0.0
sg22
I1100000
sg23
I1416848
sg24
I2977505547025
sg25
I12
sg26
I1210000000000
sg27
I0
sg28
I2007458255104
sg29
I360528
sg30
I251654
sg31
I3202070
sg32
I5137819809141253625
sg33
F0.08823529411764706
sg34
I1056320
ssS'JACKSON CHARLENE R'
p84
(dp85
g3
I258
sg4
g5
sg6
I10181
sg7
I00
sg8
g5
sg9
S'charlene.jackson@enron.com'
p86
sg11
g5
sg12
I44
sg13
I0
sg14
g5
sg15
I83265719364
sg16
I117
sg17
g5
sg18
I56
sg19
I2435
sg20
g5
sg21
F0.3392857142857143
sg22
I250000
sg23
I725735
sg24
I0
sg25
I25
sg26
I62500000000
sg27
I19
sg28
I526691290225
sg29
I540672
sg30
I288558
sg31
I551174
sg32
I0
sg33
F0.09689922480620156
sg34
I185063
ssS'WESTFAHL RICHARD K'
p87
(dp88
g3
I0
sg4
g5
sg6
I51870
sg7
I00
sg8
I-10800
sg9
S'dick.westfahl@enron.com'
p89
sg11
I256191
sg12
I0
sg13
I0
sg14
g5
sg15
I4063297536
sg16
g5
sg17
g5
sg18
I0
sg19
I401130
sg20
g5
sg21
I0
sg22
g5
sg23
I384930
sg24
I65633828481
sg25
I0
sg26
I0
sg27
I0
sg28
I148171104900
sg29
I384930
sg30
I63744
sg31
I762135
sg32
I16814796152375871
sg33
I0
sg34
g5
ssS'WALTERS GARETH W'
p90
(dp91
g3
I0
sg4
I53625
sg6
I33785
sg7
I00
sg8
g5
sg9
g5
sg11
g5
sg12
I0
sg13
I0
sg14
g5
sg15
I0
sg16
g5
sg17
g5
sg18
I0
sg19
g5
sg20
g5
sg21
I0
sg22
g5
sg23
I1030329
sg24
I0
sg25
I0
sg26
I0
sg27
I0
sg28
I1061577848241
sg29
g5
sg30
g5
sg31
I87410
sg32
I0
sg33
I0
sg34
I1030329
ssS'WALLS JR ROBERT H'
p92
(dp93
g3
I671
sg4
g5
sg6
I50936
sg7
I00
sg8
g5
sg9
S'rob.walls@enron.com'
p94
sg11
I540751
sg12
I17
sg13
I2
sg14
g5
sg15
I127513982281
sg16
I215
sg17
g5
sg18
I146
sg19
I2
sg20
g5
sg21
F0.0
sg22
I850000
sg23
I5898997
sg24
I292411644001
sg25
I17
sg26
I722500000000
sg27
I0
sg28
I34798165606009
sg29
I1552453
sg30
I357091
sg31
I1798780
sg32
I158121888905184751
sg33
F0.02533532041728763
sg34
I4346544
ssS'KITCHEN LOUISE'
p95
(dp96
g3
I8305
sg4
g5
sg6
I5774
sg7
I00
sg8
g5
sg9
S'louise.kitchen@enron.com'
p97
sg11
g5
sg12
I445
sg13
I11
sg14
g5
sg15
I73680759364
sg16
I3669
sg17
g5
sg18
I1728
sg19
I93925
sg20
g5
sg21
F0.11226851851851852
sg22
I3100000
sg23
I547143
sg24
I0
sg25
I251
sg26
I9610000000000
sg27
I194
sg28
I299365462449
sg29
I466101
sg30
I271442
sg31
I3471141
sg32
I0
sg33
F0.030222757375075255
sg34
I81042
ssS'CHAN RONNIE'
p98
(dp99
g3
I0
sg4
g5
sg6
g5
sg7
I00
sg8
I-98784
sg9
g5
sg11
g5
sg12
I0
sg13
I0
sg14
I-32460
sg15
I0
sg16
g5
sg17
g5
sg18
I0
sg19
g5
sg20
I98784
sg21
I0
sg22
g5
sg23
g5
sg24
I0
sg25
I0
sg26
I0
sg27
I0
sg28
I0
sg29
I32460
sg30
g5
sg31
g5
sg32
I0
sg33
I0
sg34
g5
ssS'BELFER ROBERT'
p100
(dp101
g3
I0
sg4
I-102500
sg6
g5
sg7
I00
sg8
g5
sg9
g5
sg11
g5
sg12
I0
sg13
I0
sg14
I44093
sg15
I0
sg16
g5
sg17
g5
sg18
I0
sg19
g5
sg20
I3285
sg21
I0
sg22
g5
sg23
I-44093
sg24
I0
sg25
I0
sg26
I0
sg27
I0
sg28
I0
sg29
g5
sg30
g5
sg31
I102500
sg32
I0
sg33
I0
sg34
I3285
ssS'SHANKMAN JEFFREY A'
p102
(dp103
g3
I3221
sg4
g5
sg6
I178979
sg7
I00
sg8
g5
sg9
S'jeffrey.shankman@enron.com'
p104
sg11
I554422
sg12
I177
sg13
I6
sg14
g5
sg15
I92482892100
sg16
I1730
sg17
g5
sg18
I2681
sg19
I1191
sg20
g5
sg21
F0.030958597538232
sg22
I2000000
sg23
I2072035
sg24
I307383754084
sg25
I94
sg26
I4000000000000
sg27
I83
sg28
I4293329041225
sg29
I630137
sg30
I304110
sg31
I3038702
sg32
I170420315706759448
sg33
F0.029183483390251473
sg34
I1441898
ssS'WODRASKA JOHN'
p105
(dp106
g3
I0
sg4
g5
sg6
g5
sg7
I00
sg8
g5
sg9
S'john.wodraska@enron.com'
p107
sg11
g5
sg12
I0
sg13
I0
sg14
g5
sg15
I0
sg16
g5
sg17
g5
sg18
I0
sg19
I189583
sg20
g5
sg21
I0
sg22
g5
sg23
g5
sg24
I0
sg25
I0
sg26
I0
sg27
I0
sg28
I0
sg29
g5
sg30
g5
sg31
I189583
sg32
I0
sg33
I0
sg34
g5
ssS'BERGSIEKER RICHARD P'
p108
(dp109
g3
I383
sg4
g5
sg6
I59175
sg7
I00
sg8
I-485813
sg9
S'rick.bergsieker@enron.com'
p110
sg11
I180250
sg12
I4
sg13
I1
sg14
g5
sg15
I35314678084
sg16
I233
sg17
g5
sg18
I59
sg19
I427316
sg20
g5
sg21
F0.0
sg22
I250000
sg23
I659249
sg24
I32490062500
sg25
I4
sg26
I62500000000
sg27
I0
sg28
I434609244001
sg29
I659249
sg30
I187922
sg31
I618850
sg32
I5856333765625000
sg33
F0.010443864229765013
sg34
g5
ssS'URQUHART JOHN A'
p111
(dp112
g3
I0
sg4
g5
sg6
I228656
sg7
I00
sg8
I-36666
sg9
g5
sg11
g5
sg12
I0
sg13
I0
sg14
g5
sg15
I0
sg16
g5
sg17
g5
sg18
I0
sg19
g5
sg20
I36666
sg21
I0
sg22
g5
sg23
g5
sg24
I0
sg25
I0
sg26
I0
sg27
I0
sg28
I0
sg29
g5
sg30
g5
sg31
I228656
sg32
I0
sg33
I0
sg34
g5
ssS'BIBI PHILIPPE A'
p113
(dp114
g3
I1607
sg4
g5
sg6
I38559
sg7
I00
sg8
g5
sg9
S'philippe.bibi@enron.com'
p115
sg11
I369721
sg12
I31
sg13
I4
sg14
g5
sg15
I45635640625
sg16
I1336
sg17
g5
sg18
I40
sg19
I425688
sg20
g5
sg21
F0.2
sg22
I1000000
sg23
I1843816
sg24
I136693617841
sg25
I23
sg26
I1000000000000
sg27
I8
sg28
I3399657441856
sg29
I378082
sg30
I213625
sg31
I2047593
sg32
I50538501081792361
sg33
F0.01431238332296204
sg34
I1465734
ssS'RIEKER PAULA H'
p116
(dp117
g3
I1328
sg4
I214678
sg6
I33271
sg7
I01
sg8
I-100000
sg9
S'paula.rieker@enron.com'
p118
sg11
g5
sg12
I83
sg13
I2
sg14
g5
sg15
I62101138401
sg16
I1258
sg17
g5
sg18
I82
sg19
I1950
sg20
g5
sg21
F0.5853658536585366
sg22
I700000
sg23
I1918887
sg24
I0
sg25
I35
sg26
I490000000000
sg27
I48
sg28
I3682127318769
sg29
I283649
sg30
I249201
sg31
I1099100
sg32
I0
sg33
F0.02635542168674699
sg34
I1635238
ssS'WHALEY DAVID A'
p119
(dp120
g3
I0
sg4
g5
sg6
g5
sg7
I00
sg8
g5
sg9
g5
sg11
g5
sg12
I0
sg13
I0
sg14
g5
sg15
I0
sg16
g5
sg17
g5
sg18
I0
sg19
g5
sg20
g5
sg21
I0
sg22
g5
sg23
I98718
sg24
I0
sg25
I0
sg26
I0
sg27
I0
sg28
I9745243524
sg29
g5
sg30
g5
sg31
g5
sg32
I0
sg33
I0
sg34
I98718
ssS'BECK SALLY W'
p121
(dp122
g3
I7315
sg4
g5
sg6
I37172
sg7
I00
sg8
g5
sg9
S'sally.beck@enron.com'
p123
sg11
g5
sg12
I530
sg13
I3
sg14
g5
sg15
I53513568900
sg16
I2639
sg17
g5
sg18
I4343
sg19
I566
sg20
g5
sg21
F0.08887865530739121
sg22
I700000
sg23
I126027
sg24
I0
sg25
I144
sg26
I490000000000
sg27
I386
sg28
I15882804729
sg29
I126027
sg30
I231330
sg31
I969068
sg32
I0
sg33
F0.01968557758031442
sg34
g5
ssS'HAUG DAVID L'
p124
(dp125
g3
I573
sg4
g5
sg6
I475
sg7
I00
sg8
g5
sg9
S'david.haug@enron.com'
p126
sg11
g5
sg12
I11
sg13
I0
sg14
g5
sg15
I0
sg16
I471
sg17
g5
sg18
I19
sg19
g5
sg20
g5
sg21
F0.3684210526315789
sg22
g5
sg23
I2217299
sg24
I0
sg25
I4
sg26
I0
sg27
I7
sg28
I4916414855401
sg29
I2217299
sg30
g5
sg31
I475
sg32
I0
sg33
F0.006980802792321117
sg34
g5
ssS'ECHOLS JOHN B'
p127
(dp128
g3
I0
sg4
g5
sg6
I21530
sg7
I00
sg8
g5
sg9
S'john.echols@enron.com'
p129
sg11
I2234774
sg12
I0
sg13
I1
sg14
g5
sg15
I33213240025
sg16
g5
sg17
g5
sg18
I0
sg19
I53775
sg20
g5
sg21
I0
sg22
I200000
sg23
I1008941
sg24
I4994214831076
sg25
I0
sg26
I40000000000
sg27
I0
sg28
I1017961941481
sg29
I407503
sg30
I182245
sg31
I2692324
sg32
L11160941454903036824L
sg33
I0
sg34
I601438
ssS'MENDELSOHN JOHN'
p130
(dp131
g3
I0
sg4
g5
sg6
I148
sg7
I00
sg8
I-103750
sg9
g5
sg11
g5
sg12
I0
sg13
I0
sg14
g5
sg15
I0
sg16
g5
sg17
g5
sg18
I0
sg19
g5
sg20
I103750
sg21
I0
sg22
g5
sg23
g5
sg24
I0
sg25
I0
sg26
I0
sg27
I0
sg28
I0
sg29
g5
sg30
g5
sg31
I148
sg32
I0
sg33
I0
sg34
g5
ssS'HICKERSON GARY J'
p132
(dp133
g3
I1320
sg4
g5
sg6
I98849
sg7
I00
sg8
g5
sg9
S'gary.hickerson@enron.com'
p134
sg11
I69223
sg12
I41
sg13
I8
sg14
g5
sg15
I44854156944
sg16
I900
sg17
g5
sg18
I27
sg19
I1936
sg20
g5
sg21
F0.037037037037037035
sg22
I1700000
sg23
I441096
sg24
I4791823729
sg25
I40
sg26
I2890000000000
sg27
I1
sg28
I194565681216
sg29
I441096
sg30
I211788
sg31
I2081796
sg32
I331704413992567
sg33
F0.030303030303030304
sg34
g5
ssS'CLINE KENNETH W'
p135
(dp136
g3
I0
sg4
g5
sg6
g5
sg7
I00
sg8
g5
sg9
g5
sg11
g5
sg12
I0
sg13
I0
sg14
I-472568
sg15
I0
sg16
g5
sg17
g5
sg18
I0
sg19
g5
sg20
g5
sg21
I0
sg22
g5
sg23
I189518
sg24
I0
sg25
I0
sg26
I0
sg27
I0
sg28
I35917072324
sg29
I662086
sg30
g5
sg31
g5
sg32
I0
sg33
I0
sg34
g5
ssS'LEWIS RICHARD'
p137
(dp138
g3
I952
sg4
g5
sg6
g5
sg7
I00
sg8
g5
sg9
S'richard.lewis@enron.com'
p139
sg11
g5
sg12
I10
sg13
I0
sg14
g5
sg15
I0
sg16
I739
sg17
g5
sg18
I26
sg19
g5
sg20
g5
sg21
F0.0
sg22
g5
sg23
I850477
sg24
I0
sg25
I10
sg26
I0
sg27
I0
sg28
I723311127529
sg29
g5
sg30
g5
sg31
g5
sg32
I0
sg33
F0.01050420168067227
sg34
I850477
ssS'HAYES ROBERT E'
p140
(dp141
g3
I504
sg4
I7961
sg6
g5
sg7
I00
sg8
g5
sg9
S'robert.hayes@enron.com'
p142
sg11
g5
sg12
I16
sg13
I0
sg14
g5
sg15
I0
sg16
I50
sg17
g5
sg18
I12
sg19
g5
sg20
g5
sg21
F0.0
sg22
g5
sg23
I151418
sg24
I0
sg25
I16
sg26
I0
sg27
I0
sg28
I22927410724
sg29
I151418
sg30
g5
sg31
I7961
sg32
I0
sg33
F0.031746031746031744
sg34
g5
ssS'MCCARTY DANNY J'
p143
(dp144
g3
I1433
sg4
g5
sg6
g5
sg7
I00
sg8
g5
sg9
S'danny.mccarty@enron.com'
p145
sg11
g5
sg12
I27
sg13
I0
sg14
g5
sg15
I0
sg16
I508
sg17
g5
sg18
I215
sg19
g5
sg20
g5
sg21
F0.009302325581395349
sg22
g5
sg23
I758931
sg24
I0
sg25
I25
sg26
I0
sg27
I2
sg28
I575976262761
sg29
I94556
sg30
g5
sg31
g5
sg32
I0
sg33
F0.017445917655268667
sg34
I664375
ssS'KOPPER MICHAEL J'
p146
(dp147
g3
I0
sg4
g5
sg6
I118134
sg7
I01
sg8
g5
sg9
S'michael.kopper@enron.com'
p148
sg11
I602671
sg12
I0
sg13
I3
sg14
g5
sg15
I50312733025
sg16
g5
sg17
g5
sg18
I0
sg19
I907502
sg20
g5
sg21
I0
sg22
I800000
sg23
I985032
sg24
I363212334241
sg25
I0
sg26
I640000000000
sg27
I0
sg28
I970288041024
sg29
I985032
sg30
I224305
sg31
I2652612
sg32
I218897540689357711
sg33
I0
sg34
g5
ssS'LEFF DANIEL P'
p149
(dp150
g3
I2822
sg4
g5
sg6
g5
sg7
I00
sg8
g5
sg9
S'dan.leff@enron.com'
p151
sg11
I1387399
sg12
I81
sg13
I3
sg14
g5
sg15
I74936872516
sg16
I2672
sg17
g5
sg18
I63
sg19
I3083
sg20
g5
sg21
F0.2222222222222222
sg22
I1000000
sg23
I360528
sg24
I1924875985201
sg25
I67
sg26
I1000000000000
sg27
I14
sg28
I129980438784
sg29
I360528
sg30
I273746
sg31
I2664228
sg32
I2670571016991882199
sg33
F0.02374202693125443
sg34
g5
ssS'LAVORATO JOHN J'
p152
(dp153
g3
I7259
sg4
g5
sg6
I49537
sg7
I00
sg8
g5
sg9
S'john.lavorato@enron.com'
p154
sg11
I2035380
sg12
I939
sg13
I23
sg14
g5
sg15
I115116346944
sg16
I3962
sg17
g5
sg18
I2585
sg19
I1552
sg20
g5
sg21
F0.15899419729206962
sg22
I8000000
sg23
I5167144
sg24
I4142771744400
sg25
I528
sg26
I64000000000000
sg27
I411
sg28
I26699377116736
sg29
I1008149
sg30
I339288
sg31
I10425757
sg32
I8432114753116872000
sg33
F0.07273729163796666
sg34
I4158995
ssS'BERBERIAN DAVID'
p155
(dp156
g3
I0
sg4
g5
sg6
I11892
sg7
I00
sg8
g5
sg9
S'david.berberian@enron.com'
p157
sg11
g5
sg12
I0
sg13
I0
sg14
g5
sg15
I46907762724
sg16
g5
sg17
g5
sg18
I0
sg19
g5
sg20
g5
sg21
I0
sg22
g5
sg23
I2493616
sg24
I0
sg25
I0
sg26
I0
sg27
I0
sg28
I6218120755456
sg29
I869220
sg30
I216582
sg31
I228474
sg32
I0
sg33
I0
sg34
I1624396
ssS'DETMERING TIMOTHY J'
p158
(dp159
g3
I0
sg4
I875307
sg6
I52255
sg7
I00
sg8
I-775241
sg9
S'timothy.detmering@enron.com'
p160
sg11
I415657
sg12
I0
sg13
I2
sg14
I-315068
sg15
I44310250000
sg16
g5
sg17
g5
sg18
I0
sg19
I1105
sg20
g5
sg21
I0
sg22
I425000
sg23
I2027865
sg24
I172770741649
sg25
I0
sg26
I180625000000
sg27
I0
sg28
I4112236458225
sg29
I315068
sg30
I210500
sg31
I1204583
sg32
I71813368161598393
sg33
I0
sg34
I2027865
ssS'WAKEHAM JOHN'
p161
(dp162
g3
I0
sg4
g5
sg6
I103773
sg7
I00
sg8
g5
sg9
g5
sg11
g5
sg12
I0
sg13
I0
sg14
g5
sg15
I0
sg16
g5
sg17
g5
sg18
I0
sg19
g5
sg20
I109298
sg21
I0
sg22
g5
sg23
g5
sg24
I0
sg25
I0
sg26
I0
sg27
I0
sg28
I0
sg29
g5
sg30
g5
sg31
I213071
sg32
I0
sg33
I0
sg34
g5
ssS'POWERS WILLIAM'
p163
(dp164
g3
I653
sg4
g5
sg6
g5
sg7
I00
sg8
I-17500
sg9
S'ken.powers@enron.com'
p165
sg11
g5
sg12
I0
sg13
I0
sg14
g5
sg15
I0
sg16
I12
sg17
g5
sg18
I26
sg19
g5
sg20
I17500
sg21
F0.0
sg22
g5
sg23
g5
sg24
I0
sg25
I0
sg26
I0
sg27
I0
sg28
I0
sg29
g5
sg30
g5
sg31
g5
sg32
I0
sg33
F0.0
sg34
g5
ssS'GOLD JOSEPH'
p166
(dp167
g3
I0
sg4
g5
sg6
g5
sg7
I00
sg8
g5
sg9
S'joe.gold@enron.com'
p168
sg11
I304805
sg12
I0
sg13
I2
sg14
g5
sg15
I74463494400
sg16
g5
sg17
g5
sg18
I0
sg19
I819288
sg20
g5
sg21
I0
sg22
I750000
sg23
I877611
sg24
I92906088025
sg25
I0
sg26
I562500000000
sg27
I0
sg28
I770201067321
sg29
I441096
sg30
I272880
sg31
I2146973
sg32
I28318240160460125
sg33
I0
sg34
I436515
ssS'BANNANTINE JAMES M'
p169
(dp170
g3
I566
sg4
g5
sg6
I56301
sg7
I00
sg8
I-5104
sg9
S'james.bannantine@enron.com'
p171
sg11
g5
sg12
I39
sg13
I0
sg14
I-560222
sg15
I227529
sg16
I465
sg17
g5
sg18
I29
sg19
I864523
sg20
g5
sg21
F0.0
sg22
g5
sg23
I5243487
sg24
I0
sg25
I39
sg26
I0
sg27
I0
sg28
I27494155919169
sg29
I1757552
sg30
I477
sg31
I916197
sg32
I0
sg33
F0.06890459363957598
sg34
I4046157
ssS'DUNCAN JOHN H'
p172
(dp173
g3
I0
sg4
g5
sg6
g5
sg7
I00
sg8
I-25000
sg9
g5
sg11
g5
sg12
I0
sg13
I0
sg14
g5
sg15
I0
sg16
g5
sg17
g5
sg18
I0
sg19
g5
sg20
I102492
sg21
I0
sg22
g5
sg23
I371750
sg24
I0
sg25
I0
sg26
I0
sg27
I0
sg28
I138198062500
sg29
g5
sg30
g5
sg31
I77492
sg32
I0
sg33
I0
sg34
I371750
ssS'SHAPIRO RICHARD S'
p174
(dp175
g3
I15149
sg4
g5
sg6
I137767
sg7
I00
sg8
g5
sg9
S'richard.shapiro@enron.com'
p176
sg11
g5
sg12
I139
sg13
I2
sg14
g5
sg15
I72401893776
sg16
I4527
sg17
g5
sg18
I1215
sg19
I705
sg20
g5
sg21
F0.053497942386831275
sg22
I650000
sg23
I987001
sg24
I0
sg25
I74
sg26
I422500000000
sg27
I65
sg28
I974170974001
sg29
I379164
sg30
I269076
sg31
I1057548
sg32
I0
sg33
F0.0048848108786058485
sg34
I607837
ssS'SHERRIFF JOHN R'
p177
(dp178
g3
I3187
sg4
g5
sg6
g5
sg7
I00
sg8
g5
sg9
S'john.sherriff@enron.com'
p179
sg11
I554422
sg12
I51
sg13
I3
sg14
g5
sg15
I183852288400
sg16
I2103
sg17
g5
sg18
I92
sg19
I1852186
sg20
g5
sg21
F0.25
sg22
I1500000
sg23
I3128982
sg24
I307383754084
sg25
I28
sg26
I2250000000000
sg27
I23
sg28
I9790528356324
sg29
I1293424
sg30
I428780
sg31
I4335388
sg32
I170420315706759448
sg33
F0.008785691873235017
sg34
I1835558
ssS'SHELBY REX'
p180
(dp181
g3
I225
sg4
g5
sg6
I22884
sg7
I01
sg8
I-4167
sg9
S'rex.shelby@enron.com'
p182
sg11
g5
sg12
I27
sg13
I0
sg14
g5
sg15
I44877880336
sg16
I91
sg17
g5
sg18
I39
sg19
I1573324
sg20
g5
sg21
F0.358974358974359
sg22
I200000
sg23
I2493616
sg24
I0
sg25
I13
sg26
I40000000000
sg27
I14
sg28
I6218120755456
sg29
I869220
sg30
I211844
sg31
I2003885
sg32
I0
sg33
F0.057777777777777775
sg34
I1624396
ssS'LEMAISTRE CHARLES'
p183
(dp184
g3
I0
sg4
g5
sg6
g5
sg7
I00
sg8
I-25000
sg9
g5
sg11
g5
sg12
I0
sg13
I0
sg14
g5
sg15
I0
sg16
g5
sg17
g5
sg18
I0
sg19
g5
sg20
I112492
sg21
I0
sg22
g5
sg23
I412878
sg24
I0
sg25
I0
sg26
I0
sg27
I0
sg28
I170468242884
sg29
g5
sg30
g5
sg31
I87492
sg32
I0
sg33
I0
sg34
I412878
ssS'DEFFNER JOSEPH M'
p185
(dp186
g3
I714
sg4
g5
sg6
I41626
sg7
I00
sg8
g5
sg9
S'joseph.deffner@enron.com'
p187
sg11
I335349
sg12
I119
sg13
I2
sg14
g5
sg15
I42485866641
sg16
I552
sg17
g5
sg18
I74
sg19
I25553
sg20
g5
sg21
F0.05405405405405406
sg22
I600000
sg23
I159211
sg24
I112458951801
sg25
I115
sg26
I360000000000
sg27
I4
sg28
I25348142521
sg29
I141833
sg30
I206121
sg31
I1208649
sg32
I37712997027513549
sg33
F0.16106442577030813
sg34
I17378
ssS'KISHKILL JOSEPH G'
p188
(dp189
g3
I0
sg4
g5
sg6
I116335
sg7
I00
sg8
I-51042
sg9
S'joe.kishkill@enron.com'
p190
sg11
g5
sg12
I0
sg13
I0
sg14
g5
sg15
I30361668516
sg16
g5
sg17
g5
sg18
I0
sg19
I465357
sg20
g5
sg21
I0
sg22
g5
sg23
I1034346
sg24
I0
sg25
I0
sg26
I0
sg27
I0
sg28
I1069871647716
sg29
I1034346
sg30
I174246
sg31
I704896
sg32
I0
sg33
I0
sg34
g5
ssS'WHALLEY LAWRENCE G'
p191
(dp192
g3
I6019
sg4
g5
sg6
I57838
sg7
I00
sg8
g5
sg9
S'greg.whalley@enron.com'
p193
sg11
I808346
sg12
I210
sg13
I5
sg14
g5
sg15
I260471412496
sg16
I3920
sg17
g5
sg18
I556
sg19
I301026
sg20
g5
sg21
F0.04316546762589928
sg22
I3000000
sg23
I6079137
sg24
I653423255716
sg25
I186
sg26
I9000000000000
sg27
I24
sg28
I36955906664769
sg29
I2796177
sg30
I510364
sg31
I4677574
sg32
I528192075065005736
sg33
F0.03090214321315833
sg34
I3282960
ssS'MCCONNELL MICHAEL S'
p194
(dp195
g3
I3329
sg4
g5
sg6
I81364
sg7
I00
sg8
g5
sg9
S'mike.mcconnell@enron.com'
p196
sg11
I554422
sg12
I286
sg13
I3
sg14
g5
sg15
I133252741444
sg16
I2189
sg17
g5
sg18
I2742
sg19
I540
sg20
g5
sg21
F0.07075127644055434
sg22
I1100000
sg23
I3101279
sg24
I307383754084
sg25
I92
sg26
I1210000000000
sg27
I194
sg28
I9617931435841
sg29
I1478269
sg30
I365038
sg31
I2101364
sg32
I170420315706759448
sg33
F0.02763592670471613
sg34
I1623010
ssS'PIRO JIM'
p197
(dp198
g3
I58
sg4
g5
sg6
g5
sg7
I00
sg8
g5
sg9
S'jim.piro@enron.com'
p199
sg11
g5
sg12
I1
sg13
I0
sg14
g5
sg15
I0
sg16
I3
sg17
g5
sg18
I16
sg19
g5
sg20
g5
sg21
F0.0625
sg22
g5
sg23
I47304
sg24
I0
sg25
I0
sg26
I0
sg27
I1
sg28
I2237668416
sg29
I47304
sg30
g5
sg31
g5
sg32
I0
sg33
F0.0
sg34
g5
ssS'DELAINEY DAVID W'
p200
(dp201
g3
I3093
sg4
g5
sg6
I86174
sg7
I01
sg8
g5
sg9
S'david.delainey@enron.com'
p202
sg11
I1294981
sg12
I675
sg13
I8
sg14
g5
sg15
I133344016569
sg16
I2097
sg17
g5
sg18
I3069
sg19
I1661
sg20
g5
sg21
F0.198435972629521
sg22
I3000000
sg23
I3614261
sg24
I1676975790361
sg25
I66
sg26
I9000000000000
sg27
I609
sg28
I13062882576121
sg29
I1323148
sg30
I365163
sg31
I4747979
sg32
I2171651785977478141
sg33
F0.02133850630455868
sg34
I2291113
ssS'SULLIVAN-SHAKLOVITZ COLLEEN'
p203
(dp204
g3
I0
sg4
I181993
sg6
g5
sg7
I00
sg8
g5
sg9
g5
sg11
I554422
sg12
I0
sg13
I0
sg14
g5
sg15
I26497002841
sg16
g5
sg17
g5
sg18
I0
sg19
I162
sg20
g5
sg21
I0
sg22
I100000
sg23
I1362375
sg24
I307383754084
sg25
I0
sg26
I10000000000
sg27
I0
sg28
I1856065640625
sg29
g5
sg30
I162779
sg31
I999356
sg32
I170420315706759448
sg33
I0
sg34
I1362375
ssS'WROBEL BRUCE'
p205
(dp206
g3
I0
sg4
g5
sg6
g5
sg7
I00
sg8
g5
sg9
g5
sg11
g5
sg12
I0
sg13
I0
sg14
g5
sg15
I0
sg16
g5
sg17
g5
sg18
I0
sg19
g5
sg20
g5
sg21
I0
sg22
g5
sg23
I139130
sg24
I0
sg25
I0
sg26
I0
sg27
I0
sg28
I19357156900
sg29
g5
sg30
g5
sg31
g5
sg32
I0
sg33
I0
sg34
I139130
ssS'LINDHOLM TOD A'
p207
(dp208
g3
I0
sg4
I204075
sg6
I57727
sg7
I00
sg8
g5
sg9
S'tod.lindholm@enron.com'
p209
sg11
I175000
sg12
I0
sg13
I0
sg14
g5
sg15
I55911912849
sg16
g5
sg17
g5
sg18
I0
sg19
I2630
sg20
g5
sg21
I0
sg22
I200000
sg23
I3064208
sg24
I30625000000
sg25
I0
sg26
I40000000000
sg27
I0
sg28
I9389370667264
sg29
I514847
sg30
I236457
sg31
I875889
sg32
I5359375000000000
sg33
I0
sg34
I2549361
ssS'MEYER JEROME J'
p210
(dp211
g3
I0
sg4
g5
sg6
I2151
sg7
I00
sg8
I-38346
sg9
g5
sg11
g5
sg12
I0
sg13
I0
sg14
g5
sg15
I0
sg16
g5
sg17
g5
sg18
I0
sg19
g5
sg20
I38346
sg21
I0
sg22
g5
sg23
g5
sg24
I0
sg25
I0
sg26
I0
sg27
I0
sg28
I0
sg29
g5
sg30
g5
sg31
I2151
sg32
I0
sg33
I0
sg34
g5
ssS'LAY KENNETH L'
p212
(dp213
g3
I4273
sg4
I202911
sg6
I99832
sg7
I01
sg8
I-300000
sg9
S'kenneth.lay@enron.com'
p214
sg11
I3600000
sg12
I139
sg13
I6
sg14
g5
sg15
I1149872327041
sg16
I2411
sg17
I81525000
sg18
I36
sg19
I10359729
sg20
g5
sg21
F0.4444444444444444
sg22
I7000000
sg23
I49110078
sg24
I12960000000000
sg25
I123
sg26
I49000000000000
sg27
I16
sg28
I2411799761166084
sg29
I14761694
sg30
I1072321
sg31
I103559793
sg32
L46656000000000000000L
sg33
F0.028785396676807865
sg34
I34348384
ssS'BUTTS ROBERT H'
p215
(dp216
g3
I0
sg4
g5
sg6
I9410
sg7
I00
sg8
I-75000
sg9
S'bob.butts@enron.com'
p217
sg11
I175000
sg12
I0
sg13
I2
sg14
g5
sg15
I68390618256
sg16
g5
sg17
g5
sg18
I0
sg19
I150656
sg20
g5
sg21
I0
sg22
I750000
sg23
I417619
sg24
I30625000000
sg25
I0
sg26
I562500000000
sg27
I0
sg28
I174405629161
sg29
I417619
sg30
I261516
sg31
I1271582
sg32
I5359375000000000
sg33
I0
sg34
g5
ssS'OLSON CINDY K'
p218
(dp219
g3
I1184
sg4
I77716
sg6
I63791
sg7
I00
sg8
g5
sg9
S'cindy.olson@enron.com'
p220
sg11
I100000
sg12
I35
sg13
I2
sg14
g5
sg15
I108292330084
sg16
I856
sg17
g5
sg18
I52
sg19
I972
sg20
g5
sg21
F0.28846153846153844
sg22
I750000
sg23
I2606763
sg24
I10000000000
sg25
I20
sg26
I562500000000
sg27
I15
sg28
I6795213338169
sg29
I969729
sg30
I329078
sg31
I1321557
sg32
I1000000000000000
sg33
F0.016891891891891893
sg34
I1637034
ssS'MCDONALD REBECCA'
p221
(dp222
g3
I894
sg4
g5
sg6
g5
sg7
I00
sg8
g5
sg9
S'rebecca.mcdonald@enron.com'
p223
sg11
g5
sg12
I55
sg13
I0
sg14
g5
sg15
I0
sg16
I720
sg17
g5
sg18
I13
sg19
g5
sg20
g5
sg21
F0.07692307692307693
sg22
g5
sg23
I1691366
sg24
I0
sg25
I54
sg26
I0
sg27
I1
sg28
I2860718945956
sg29
I934065
sg30
g5
sg31
g5
sg32
I0
sg33
F0.06040268456375839
sg34
I757301
ssS'CUMBERLAND MICHAEL S'
p224
(dp225
g3
I0
sg4
g5
sg6
I22344
sg7
I00
sg8
g5
sg9
g5
sg11
I275000
sg12
I0
sg13
I1
sg14
g5
sg15
I34187640201
sg16
g5
sg17
g5
sg18
I0
sg19
I713
sg20
g5
sg21
I0
sg22
I325000
sg23
I207940
sg24
I75625000000
sg25
I0
sg26
I105625000000
sg27
I0
sg28
I43239043600
sg29
I207940
sg30
I184899
sg31
I807956
sg32
I20796875000000000
sg33
I0
sg34
g5
ssS'GAHN ROBERT S'
p226
(dp227
g3
I0
sg4
I73122
sg6
I50080
sg7
I00
sg8
I-1042
sg9
g5
sg11
g5
sg12
I0
sg13
I2
sg14
g5
sg15
I36867072064
sg16
g5
sg17
g5
sg18
I0
sg19
I76547
sg20
g5
sg21
I0
sg22
I509870
sg23
I318607
sg24
I0
sg25
I0
sg26
I259967416900
sg27
I0
sg28
I101510420449
sg29
I235370
sg30
I192008
sg31
I900585
sg32
I0
sg33
I0
sg34
I83237
ssS'MCCLELLAN GEORGE'
p228
(dp229
g3
I1744
sg4
g5
sg6
I228763
sg7
I00
sg8
I-125000
sg9
S'george.mcclellan@enron.com'
p230
sg11
g5
sg12
I52
sg13
I3
sg14
g5
sg15
I69386408569
sg16
I1469
sg17
g5
sg18
I49
sg19
I51587
sg20
g5
sg21
F0.0
sg22
I900000
sg23
I947861
sg24
I0
sg25
I52
sg26
I810000000000
sg27
I0
sg28
I898440475321
sg29
I441096
sg30
I263413
sg31
I1318763
sg32
I0
sg33
F0.02981651376146789
sg34
I506765
ssS'HERMANN ROBERT J'
p231
(dp232
g3
I0
sg4
g5
sg6
I48357
sg7
I00
sg8
I-280000
sg9
S'robert.hermann@enron.com'
p233
sg11
I150000
sg12
I0
sg13
I2
sg14
g5
sg15
I68991851569
sg16
g5
sg17
g5
sg18
I0
sg19
I416441
sg20
g5
sg21
I0
sg22
I700000
sg23
I668132
sg24
I22500000000
sg25
I0
sg26
I490000000000
sg27
I0
sg28
I446400369424
sg29
I480632
sg30
I262663
sg31
I1297461
sg32
I3375000000000000
sg33
I0
sg34
I187500
ssS'SCRIMSHAW MATTHEW'
p234
(dp235
g3
I0
sg4
g5
sg6
g5
sg7
I00
sg8
g5
sg9
S'matthew.scrimshaw@enron.com'
p236
sg11
g5
sg12
I0
sg13
I0
sg14
g5
sg15
I0
sg16
g5
sg17
g5
sg18
I0
sg19
g5
sg20
g5
sg21
I0
sg22
g5
sg23
I759557
sg24
I0
sg25
I0
sg26
I0
sg27
I0
sg28
I576926836249
sg29
g5
sg30
g5
sg31
g5
sg32
I0
sg33
I0
sg34
I759557
ssS'GATHMANN WILLIAM D'
p237
(dp238
g3
I0
sg4
g5
sg6
g5
sg7
I00
sg8
g5
sg9
g5
sg11
g5
sg12
I0
sg13
I0
sg14
I-72419
sg15
I0
sg16
g5
sg17
g5
sg18
I0
sg19
g5
sg20
g5
sg21
I0
sg22
g5
sg23
I1945360
sg24
I0
sg25
I0
sg26
I0
sg27
I0
sg28
I3784425529600
sg29
I264013
sg30
g5
sg31
g5
sg32
I0
sg33
I0
sg34
I1753766
ssS'HAEDICKE MARK E'
p239
(dp240
g3
I4009
sg4
I2157527
sg6
I76169
sg7
I00
sg8
I-934484
sg9
S'mark.haedicke@enron.com'
p241
sg11
I983346
sg12
I241
sg13
I3
sg14
I-329825
sg15
I139969515625
sg16
I1847
sg17
g5
sg18
I1941
sg19
I52382
sg20
g5
sg21
F0.03142709943328181
sg22
I1150000
sg23
I803094
sg24
I966969355716
sg25
I180
sg26
I1322500000000
sg27
I61
sg28
I644959972836
sg29
I524169
sg30
I374125
sg31
I3859065
sg32
I950865448065905736
sg33
F0.04489897730107259
sg34
I608750
ssS'BOWEN JR RAYMOND M'
p242
(dp243
g3
I1858
sg4
g5
sg6
I65907
sg7
I01
sg8
I-833
sg9
S'raymond.bowen@enron.com'
p244
sg11
I974293
sg12
I155
sg13
I4
sg14
g5
sg15
I77618517201
sg16
I1593
sg17
g5
sg18
I27
sg19
I1621
sg20
g5
sg21
F0.5555555555555556
sg22
I1350000
sg23
I252055
sg24
I949246849849
sg25
I140
sg26
I1822500000000
sg27
I15
sg28
I63531723025
sg29
I252055
sg30
I278601
sg31
I2669589
sg32
I924844561079931757
sg33
F0.07534983853606028
sg34
g5
ssS'GILLIS JOHN'
p245
(dp246
g3
I0
sg4
g5
sg6
g5
sg7
I00
sg8
g5
sg9
g5
sg11
g5
sg12
I0
sg13
I0
sg14
g5
sg15
I0
sg16
g5
sg17
g5
sg18
I0
sg19
g5
sg20
g5
sg21
I0
sg22
g5
sg23
I85641
sg24
I0
sg25
I0
sg26
I0
sg27
I0
sg28
I7334380881
sg29
I75838
sg30
g5
sg31
g5
sg32
I0
sg33
I0
sg34
I9803
ssS'FITZGERALD JAY L'
p247
(dp248
g3
I936
sg4
g5
sg6
I23870
sg7
I00
sg8
g5
sg9
S'jay.fitzgerald@enron.com'
p249
sg11
I556416
sg12
I9
sg13
I1
sg14
g5
sg15
I39663510649
sg16
I723
sg17
g5
sg18
I16
sg19
I285414
sg20
g5
sg21
F0.5
sg22
I350000
sg23
I1621236
sg24
I309598765056
sg25
I1
sg26
I122500000000
sg27
I8
sg28
I2628406167696
sg29
I956775
sg30
I199157
sg31
I1414857
sg32
I172265706457399296
sg33
F0.0010683760683760685
sg34
I664461
ssS'MORAN MICHAEL P'
p250
(dp251
g3
I672
sg4
g5
sg6
g5
sg7
I00
sg8
g5
sg9
S'michael.moran@enron.com'
p252
sg11
g5
sg12
I0
sg13
I0
sg14
g5
sg15
I0
sg16
I127
sg17
g5
sg18
I19
sg19
g5
sg20
g5
sg21
F0.0
sg22
g5
sg23
I221141
sg24
I0
sg25
I0
sg26
I0
sg27
I0
sg28
I48903341881
sg29
I161602
sg30
g5
sg31
g5
sg32
I0
sg33
F0.0
sg34
I59539
ssS'REDMOND BRIAN L'
p253
(dp254
g3
I1671
sg4
g5
sg6
I14689
sg7
I00
sg8
g5
sg9
S'brian.redmond@enron.com'
p255
sg11
g5
sg12
I253
sg13
I0
sg14
g5
sg15
I9377985600
sg16
I1063
sg17
g5
sg18
I221
sg19
g5
sg20
g5
sg21
F0.22171945701357465
sg22
g5
sg23
I7890324
sg24
I0
sg25
I204
sg26
I0
sg27
I49
sg28
I62257212824976
sg29
I381285
sg30
I96840
sg31
I111529
sg32
I0
sg33
F0.12208258527827648
sg34
I7509039
ssS'BAZELIDES PHILIP J'
p256
(dp257
g3
I0
sg4
I684694
sg6
g5
sg7
I00
sg8
g5
sg9
g5
sg11
I93750
sg12
I0
sg13
I0
sg14
g5
sg15
I6531549124
sg16
g5
sg17
g5
sg18
I0
sg19
I874
sg20
g5
sg21
I0
sg22
g5
sg23
I1599641
sg24
I8789062500
sg25
I0
sg26
I0
sg27
I0
sg28
I2558851328881
sg29
g5
sg30
I80818
sg31
I860136
sg32
I823974609375000
sg33
I0
sg34
I1599641
ssS'BELDEN TIMOTHY N'
p258
(dp259
g3
I7991
sg4
I2144013
sg6
I17355
sg7
I01
sg8
I-2334434
sg9
S'tim.belden@enron.com'
p260
sg11
g5
sg12
I336
sg13
I24
sg14
g5
sg15
I45795572001
sg16
I5521
sg17
g5
sg18
I484
sg19
I210698
sg20
g5
sg21
F0.2231404958677686
sg22
I5249999
sg23
I1110705
sg24
I0
sg25
I228
sg26
I27562489500001
sg27
I108
sg28
I1233665597025
sg29
I157569
sg30
I213999
sg31
I5501630
sg32
I0
sg33
F0.028532098610937303
sg34
I953136
ssS'DURAN WILLIAM D'
p261
(dp262
g3
I904
sg4
g5
sg6
I25785
sg7
I00
sg8
g5
sg9
S'w.duran@enron.com'
p263
sg11
I1105218
sg12
I109
sg13
I3
sg14
g5
sg15
I44391118864
sg16
I599
sg17
g5
sg18
I12
sg19
I1568
sg20
g5
sg21
F0.25
sg22
I750000
sg23
I1640910
sg24
I1221506827524
sg25
I106
sg26
I562500000000
sg27
I3
sg28
I2692585628100
sg29
I189041
sg30
I210692
sg31
I2093263
sg32
I1350031332902420232
sg33
F0.1172566371681416
sg34
I1451869
ssS'THORN TERENCE H'
p264
(dp265
g3
I266
sg4
I16586
sg6
I46145
sg7
I00
sg8
g5
sg9
S'terence.thorn@enron.com'
p266
sg11
I200000
sg12
I0
sg13
I0
sg14
g5
sg15
I49325300649
sg16
I73
sg17
g5
sg18
I41
sg19
I426629
sg20
g5
sg21
F0.0
sg22
g5
sg23
I4817796
sg24
I40000000000
sg25
I0
sg26
I0
sg27
I0
sg28
I23211158297616
sg29
I365320
sg30
I222093
sg31
I911453
sg32
I8000000000000000
sg33
F0.0
sg34
I4452476
ssS'FASTOW ANDREW S'
p267
(dp268
g3
I0
sg4
g5
sg6
I55921
sg7
I01
sg8
I-1386055
sg9
S'andrew.fastow@enron.com'
p269
sg11
I1736055
sg12
I0
sg13
I2
sg14
g5
sg15
I194214727204
sg16
g5
sg17
g5
sg18
I0
sg19
I277464
sg20
g5
sg21
I0
sg22
I1300000
sg23
I1794412
sg24
I3013886963025
sg25
I0
sg26
I1690000000000
sg27
I0
sg28
I3219914425744
sg29
I1794412
sg30
I440698
sg31
I2424083
sg32
I5232273531594366375
sg33
I0
sg34
g5
ssS'FOY JOE'
p270
(dp271
g3
I57
sg4
I181755
sg6
g5
sg7
I00
sg8
g5
sg9
S'tracy.foy@enron.com'
p272
sg11
g5
sg12
I0
sg13
I0
sg14
g5
sg15
I0
sg16
I2
sg17
g5
sg18
I13
sg19
g5
sg20
g5
sg21
F0.0
sg22
g5
sg23
I343434
sg24
I0
sg25
I0
sg26
I0
sg27
I0
sg28
I117946912356
sg29
g5
sg30
g5
sg31
I181755
sg32
I0
sg33
F0.0
sg34
I343434
ssS'CALGER CHRISTOPHER F'
p273
(dp274
g3
I2598
sg4
g5
sg6
I35818
sg7
I01
sg8
I-262500
sg9
S'christopher.calger@enron.com'
p275
sg11
I375304
sg12
I224
sg13
I5
sg14
g5
sg15
I57690755721
sg16
I2188
sg17
g5
sg18
I144
sg19
I486
sg20
g5
sg21
F0.1736111111111111
sg22
I1250000
sg23
I126027
sg24
I140853092416
sg25
I199
sg26
I1562500000000
sg27
I25
sg28
I15882804729
sg29
I126027
sg30
I240189
sg31
I1639297
sg32
I52862728996094464
sg33
F0.07659738260200154
sg34
g5
ssS'RICE KENNETH D'
p276
(dp277
g3
I905
sg4
g5
sg6
I46950
sg7
I01
sg8
I-3504386
sg9
S'ken.rice@enron.com'
p278
sg11
I1617011
sg12
I46
sg13
I4
sg14
g5
sg15
I176934644496
sg16
I864
sg17
g5
sg18
I18
sg19
I174839
sg20
g5
sg21
F0.2222222222222222
sg22
I1750000
sg23
I22542539
sg24
I2614724574121
sg25
I42
sg26
I3062500000000
sg27
I4
sg28
I508166064566521
sg29
I2748364
sg30
I420636
sg31
I505050
sg32
I4228038398323972331
sg33
F0.04640883977900553
sg34
I19794175
ssS'KAMINSKI WINCENTY J'
p279
(dp280
g3
I4607
sg4
g5
sg6
I83585
sg7
I00
sg8
g5
sg9
S'vince.kaminski@enron.com'
p281
sg11
I323466
sg12
I212
sg13
I1
sg14
g5
sg15
I75680560201
sg16
I583
sg17
g5
sg18
I14368
sg19
I4669
sg20
g5
sg21
F0.011901447661469933
sg22
I400000
sg23
I976037
sg24
I104630253156
sg25
I41
sg26
I160000000000
sg27
I171
sg28
I952648225369
sg29
I126027
sg30
I275101
sg31
I1086821
sg32
I33844329467358696
sg33
F0.008899500759713479
sg34
I850010
ssS'COX DAVID'
p282
(dp283
g3
I102
sg4
g5
sg6
I27861
sg7
I00
sg8
I-41250
sg9
S'chip.cox@enron.com'
p284
sg11
g5
sg12
I4
sg13
I2
sg14
g5
sg15
I98776946944
sg16
I71
sg17
g5
sg18
I33
sg19
I494
sg20
g5
sg21
F0.12121212121212122
sg22
I800000
sg23
I495633
sg24
I0
sg25
I0
sg26
I640000000000
sg27
I4
sg28
I245652070689
sg29
I378082
sg30
I314288
sg31
I1101393
sg32
I0
sg33
F0.0
sg34
I117551
ssS'OVERDYKE JR JERE C'
p285
(dp286
g3
I0
sg4
g5
sg6
I18834
sg7
I00
sg8
g5
sg9
S'jere.overdyke@enron.com'
p287
sg11
I135836
sg12
I0
sg13
I0
sg14
g5
sg15
I9013793481
sg16
g5
sg17
g5
sg18
I0
sg19
I176
sg20
g5
sg21
I0
sg22
g5
sg23
I7307594
sg24
I18451418896
sg25
I0
sg26
I0
sg27
I0
sg28
I53400930068836
sg29
I2041016
sg30
I94941
sg31
I249787
sg32
I2506366937157056
sg33
I0
sg34
I5266578
ssS'PEREIRA PAULO V. FERRAZ'
p288
(dp289
g3
I0
sg4
g5
sg6
I27942
sg7
I00
sg8
I-101250
sg9
g5
sg11
g5
sg12
I0
sg13
I0
sg14
g5
sg15
I0
sg16
g5
sg17
g5
sg18
I0
sg19
g5
sg20
I101250
sg21
I0
sg22
g5
sg23
g5
sg24
I0
sg25
I0
sg26
I0
sg27
I0
sg28
I0
sg29
g5
sg30
g5
sg31
I27942
sg32
I0
sg33
I0
sg34
g5
ssS'STABLER FRANK'
p290
(dp291
g3
I0
sg4
g5
sg6
I16514
sg7
I00
sg8
g5
sg9
S'frank.stabler@enron.com'
p292
sg11
g5
sg12
I0
sg13
I2
sg14
g5
sg15
I57361208004
sg16
g5
sg17
g5
sg18
I0
sg19
I356071
sg20
g5
sg21
I0
sg22
I500000
sg23
I511734
sg24
I0
sg25
I0
sg26
I250000000000
sg27
I0
sg28
I261871686756
sg29
I511734
sg30
I239502
sg31
I1112087
sg32
I0
sg33
I0
sg34
g5
ssS'SKILLING JEFFREY K'
p293
(dp294
g3
I3627
sg4
g5
sg6
I29336
sg7
I01
sg8
g5
sg9
S'jeff.skilling@enron.com'
p295
sg11
I1920000
sg12
I118
sg13
I5
sg14
g5
sg15
I1234894342564
sg16
I2042
sg17
g5
sg18
I108
sg19
I22122
sg20
g5
sg21
F0.2777777777777778
sg22
I5600000
sg23
I26093672
sg24
I3686400000000
sg25
I88
sg26
I31360000000000
sg27
I30
sg28
I680879718443584
sg29
I6843672
sg30
I1111258
sg31
I8682716
sg32
I7077888000000000000
sg33
F0.0242624758753791
sg34
I19250000
ssS'BLAKE JR. NORMAN P'
p296
(dp297
g3
I0
sg4
g5
sg6
I1279
sg7
I00
sg8
I-113784
sg9
g5
sg11
g5
sg12
I0
sg13
I0
sg14
g5
sg15
I0
sg16
g5
sg17
g5
sg18
I0
sg19
g5
sg20
I113784
sg21
I0
sg22
g5
sg23
g5
sg24
I0
sg25
I0
sg26
I0
sg27
I0
sg28
I0
sg29
g5
sg30
g5
sg31
I1279
sg32
I0
sg33
I0
sg34
g5
ssS'SHERRICK JEFFREY B'
p298
(dp299
g3
I613
sg4
g5
sg6
g5
sg7
I00
sg8
g5
sg9
S'jeffrey.sherrick@enron.com'
p300
sg11
g5
sg12
I57
sg13
I0
sg14
g5
sg15
I0
sg16
I583
sg17
g5
sg18
I25
sg19
g5
sg20
g5
sg21
F0.72
sg22
g5
sg23
I1832468
sg24
I0
sg25
I39
sg26
I0
sg27
I18
sg28
I3357938971024
sg29
I405999
sg30
g5
sg31
g5
sg32
I0
sg33
F0.0636215334420881
sg34
I1426469
ssS'PRENTICE JAMES'
p301
(dp302
g3
I0
sg4
I564348
sg6
g5
sg7
I00
sg8
g5
sg9
S'james.prentice@enron.com'
p303
sg11
g5
sg12
I0
sg13
I0
sg14
g5
sg15
I0
sg16
g5
sg17
g5
sg18
I0
sg19
g5
sg20
g5
sg21
I0
sg22
g5
sg23
I1095040
sg24
I0
sg25
I0
sg26
I0
sg27
I0
sg28
I1199112601600
sg29
I208809
sg30
g5
sg31
I564348
sg32
I0
sg33
I0
sg34
I886231
ssS'GRAY RODNEY'
p304
(dp305
g3
I0
sg4
I93585
sg6
g5
sg7
I00
sg8
g5
sg9
g5
sg11
I365625
sg12
I0
sg13
I0
sg14
g5
sg15
I43758225
sg16
g5
sg17
g5
sg18
I0
sg19
I680833
sg20
g5
sg21
I0
sg22
g5
sg23
g5
sg24
I133681640625
sg25
I0
sg26
I0
sg27
I0
sg28
I0
sg29
g5
sg30
I6615
sg31
I1146658
sg32
I48877349853515625
sg33
I0
sg34
g5
ssS'PICKERING MARK R'
p306
(dp307
g3
I898
sg4
g5
sg6
I31653
sg7
I00
sg8
g5
sg9
S'mark.pickering@enron.com'
p308
sg11
g5
sg12
I7
sg13
I0
sg14
g5
sg15
I429073471369
sg16
I728
sg17
I400000
sg18
I67
sg19
g5
sg20
g5
sg21
F0.0
sg22
I300000
sg23
I28798
sg24
I0
sg25
I7
sg26
I90000000000
sg27
I0
sg28
I829324804
sg29
g5
sg30
I655037
sg31
I1386690
sg32
I0
sg33
F0.0077951002227171495
sg34
I28798
ssS'NOLES JAMES L'
p309
(dp310
g3
I0
sg4
I774401
sg6
g5
sg7
I00
sg8
g5
sg9
g5
sg11
g5
sg12
I0
sg13
I0
sg14
I-94556
sg15
I0
sg16
g5
sg17
g5
sg18
I0
sg19
g5
sg20
g5
sg21
I0
sg22
g5
sg23
I368705
sg24
I0
sg25
I0
sg26
I0
sg27
I0
sg28
I135943377025
sg29
I463261
sg30
g5
sg31
I774401
sg32
I0
sg33
I0
sg34
g5
ssS'KEAN STEVEN J'
p311
(dp312
g3
I12754
sg4
g5
sg6
I41953
sg7
I00
sg8
g5
sg9
S'steven.kean@enron.com'
p313
sg11
I300000
sg12
I527
sg13
I2
sg14
g5
sg15
I163489218244
sg16
I3639
sg17
g5
sg18
I6759
sg19
I1231
sg20
g5
sg21
F0.05725699067909454
sg22
I1000000
sg23
I6153642
sg24
I90000000000
sg25
I140
sg26
I1000000000000
sg27
I387
sg28
I37867309864164
sg29
I4131594
sg30
I404338
sg31
I1747522
sg32
I27000000000000000
sg33
F0.010976948408342482
sg34
I2022048
ssS'FOWLER PEGGY'
p314
(dp315
g3
I517
sg4
g5
sg6
g5
sg7
I00
sg8
g5
sg9
S'kulvinder.fowler@enron.com'
p316
sg11
g5
sg12
I0
sg13
I0
sg14
g5
sg15
I0
sg16
I10
sg17
g5
sg18
I36
sg19
g5
sg20
g5
sg21
F0.0
sg22
g5
sg23
I1884748
sg24
I0
sg25
I0
sg26
I0
sg27
I0
sg28
I3552275023504
sg29
I560170
sg30
g5
sg31
g5
sg32
I0
sg33
F0.0
sg34
I1324578
ssS'WASAFF GEORGE'
p317
(dp318
g3
I400
sg4
I831299
sg6
g5
sg7
I00
sg8
I-583325
sg9
S'george.wasaff@enron.com'
p319
sg11
I200000
sg12
I29
sg13
I1
sg14
g5
sg15
I67597920016
sg16
I337
sg17
g5
sg18
I30
sg19
I1425
sg20
g5
sg21
F0.23333333333333334
sg22
I325000
sg23
I2056427
sg24
I40000000000
sg25
I22
sg26
I105625000000
sg27
I7
sg28
I4228892006329
sg29
I388167
sg30
I259996
sg31
I1034395
sg32
I8000000000000000
sg33
F0.055
sg34
I1668260
ssS'WHITE JR THOMAS E'
p320
(dp321
g3
I0
sg4
g5
sg6
I81353
sg7
I00
sg8
g5
sg9
S'thomas.white@enron.com'
p322
sg11
g5
sg12
I0
sg13
I1
sg14
g5
sg15
I100833556849
sg16
g5
sg17
g5
sg18
I0
sg19
I1085463
sg20
g5
sg21
I0
sg22
I450000
sg23
I15144123
sg24
I0
sg25
I0
sg26
I202500000000
sg27
I0
sg28
I229344461439129
sg29
I13847074
sg30
I317543
sg31
I1934359
sg32
I0
sg33
I0
sg34
I1297049
ssS'CHRISTODOULOU DIOMEDES'
p323
(dp324
g3
I0
sg4
g5
sg6
g5
sg7
I00
sg8
g5
sg9
S'diomedes.christodoulou@enron.com'
p325
sg11
g5
sg12
I0
sg13
I0
sg14
g5
sg15
I0
sg16
g5
sg17
g5
sg18
I0
sg19
g5
sg20
g5
sg21
I0
sg22
g5
sg23
I6077885
sg24
I0
sg25
I0
sg26
I0
sg27
I0
sg28
I36940686073225
sg29
I950730
sg30
g5
sg31
g5
sg32
I0
sg33
I0
sg34
I5127155
ssS'ALLEN PHILLIP K'
p326
(dp327
g3
I2902
sg4
I2869717
sg6
I13868
sg7
I00
sg8
I-3081055
sg9
S'phillip.allen@enron.com'
p328
sg11
I304805
sg12
I112
sg13
I20
sg14
I-126027
sg15
I40785822025
sg16
I1407
sg17
g5
sg18
I2195
sg19
I152
sg20
g5
sg21
F0.029612756264236904
sg22
I4175000
sg23
I1729541
sg24
I92906088025
sg25
I47
sg26
I17430625000000
sg27
I65
sg28
I2991312070681
sg29
I126027
sg30
I201955
sg31
I4484442
sg32
I28318240160460125
sg33
F0.016195727084769126
sg34
I1729541
ssS'SHARP VICTORIA T'
p329
(dp330
g3
I3136
sg4
I187469
sg6
I116337
sg7
I00
sg8
g5
sg9
S'vicki.sharp@enron.com'
p331
sg11
I422158
sg12
I30
sg13
I2
sg14
g5
sg15
I61576437316
sg16
I2477
sg17
g5
sg18
I136
sg19
I2401
sg20
g5
sg21
F0.04411764705882353
sg22
I600000
sg23
I494136
sg24
I178217376964
sg25
I24
sg26
I360000000000
sg27
I6
sg28
I244170386496
sg29
I213063
sg30
I248146
sg31
I1576511
sg32
I75235891424368312
sg33
F0.007653061224489796
sg34
I281073
ssS'JAEDICKE ROBERT'
p332
(dp333
g3
I0
sg4
g5
sg6
g5
sg7
I00
sg8
I-25000
sg9
g5
sg11
g5
sg12
I0
sg13
I0
sg14
I-44093
sg15
I0
sg16
g5
sg17
g5
sg18
I0
sg19
g5
sg20
I108750
sg21
I0
sg22
g5
sg23
I431750
sg24
I0
sg25
I0
sg26
I0
sg27
I0
sg28
I186408062500
sg29
I44093
sg30
g5
sg31
I83750
sg32
I0
sg33
I0
sg34
I431750
ssS'WINOKUR JR. HERBERT S'
p334
(dp335
g3
I0
sg4
g5
sg6
I1413
sg7
I00
sg8
I-25000
sg9
g5
sg11
g5
sg12
I0
sg13
I0
sg14
g5
sg15
I0
sg16
g5
sg17
g5
sg18
I0
sg19
g5
sg20
I108579
sg21
I0
sg22
g5
sg23
g5
sg24
I0
sg25
I0
sg26
I0
sg27
I0
sg28
I0
sg29
g5
sg30
g5
sg31
I84992
sg32
I0
sg33
I0
sg34
g5
ssS'BROWN MICHAEL'
p336
(dp337
g3
I1486
sg4
g5
sg6
I49288
sg7
I00
sg8
g5
sg9
S'michael.brown@enron.com'
p338
sg11
g5
sg12
I14
sg13
I0
sg14
g5
sg15
I0
sg16
I761
sg17
g5
sg18
I41
sg19
g5
sg20
g5
sg21
F0.024390243902439025
sg22
g5
sg23
g5
sg24
I0
sg25
I13
sg26
I0
sg27
I1
sg28
I0
sg29
g5
sg30
g5
sg31
I49288
sg32
I0
sg33
F0.008748317631224764
sg34
g5
ssS'BADUM JAMES P'
p339
(dp340
g3
I0
sg4
I178980
sg6
I3486
sg7
I00
sg8
g5
sg9
g5
sg11
g5
sg12
I0
sg13
I0
sg14
g5
sg15
I0
sg16
g5
sg17
g5
sg18
I0
sg19
g5
sg20
g5
sg21
I0
sg22
g5
sg23
I257817
sg24
I0
sg25
I0
sg26
I0
sg27
I0
sg28
I66469605489
sg29
g5
sg30
g5
sg31
I182466
sg32
I0
sg33
I0
sg34
I257817
ssS'HUGHES JAMES A'
p341
(dp342
g3
I719
sg4
g5
sg6
g5
sg7
I00
sg8
g5
sg9
S'james.hughes@enron.com'
p343
sg11
g5
sg12
I40
sg13
I0
sg14
g5
sg15
I0
sg16
I589
sg17
g5
sg18
I34
sg19
g5
sg20
g5
sg21
F0.14705882352941177
sg22
g5
sg23
I1118394
sg24
I0
sg25
I35
sg26
I0
sg27
I5
sg28
I1250805139236
sg29
I363428
sg30
g5
sg31
g5
sg32
I0
sg33
F0.048678720445062586
sg34
I754966
ssS'REYNOLDS LAWRENCE'
p344
(dp345
g3
I0
sg4
I51365
sg6
I8409
sg7
I00
sg8
I-200000
sg9
g5
sg11
I156250
sg12
I0
sg13
I1
sg14
I-140264
sg15
I5836807201
sg16
g5
sg17
g5
sg18
I0
sg19
I202052
sg20
g5
sg21
I0
sg22
I100000
sg23
I4221891
sg24
I24414062500
sg25
I0
sg26
I10000000000
sg27
I0
sg28
I17824363615881
sg29
I201483
sg30
I76399
sg31
I394475
sg32
I3814697265625000
sg33
I0
sg34
I4160672
ssS'DIMICHELE RICHARD G'
p346
(dp347
g3
I0
sg4
g5
sg6
I35812
sg7
I00
sg8
g5
sg9
S'richard.dimichele@enron.com'
p348
sg11
I694862
sg12
I0
sg13
I3
sg14
g5
sg15
I69057532944
sg16
g5
sg17
g5
sg18
I0
sg19
I374689
sg20
g5
sg21
I0
sg22
I1000000
sg23
I8317782
sg24
I482833199044
sg25
I0
sg26
I1000000000000
sg27
I0
sg28
I69185497399524
sg29
I126027
sg30
I262788
sg31
I2368151
sg32
I335502442354111928
sg33
I0
sg34
I8191755
ssS'BHATNAGAR SANJAY'
p349
(dp350
g3
I523
sg4
g5
sg6
g5
sg7
I00
sg8
g5
sg9
S'sanjay.bhatnagar@enron.com'
p351
sg11
g5
sg12
I1
sg13
I0
sg14
I15456290
sg15
I0
sg16
I463
sg17
g5
sg18
I29
sg19
I137864
sg20
I137864
sg21
F0.034482758620689655
sg22
g5
sS'total_stock_value'
p352
S'NaN'
p353
sg24
I0
sg25
I0
sg26
I0
sg27
I1
sg28
I0
sg29
I-2604490
sg30
g5
sg31
I15456290
sg32
I0
sg33
F0.0
sg34
I2604490
ssS'CARTER REBECCA C'
p354
(dp355
g3
I312
sg4
g5
sg6
g5
sg7
I00
sg8
I-159792
sg9
S'rebecca.carter@enron.com'
p356
sg11
I75000
sg12
I36
sg13
I1
sg14
I-307301
sg15
I68543952481
sg16
I196
sg17
g5
sg18
I15
sg19
I540
sg20
g5
sg21
F0.4666666666666667
sg22
I300000
sg23
g5
sg24
I5625000000
sg25
I29
sg26
I90000000000
sg27
I7
sg28
I0
sg29
I307301
sg30
I261809
sg31
I477557
sg32
I421875000000000
sg33
F0.09294871794871795
sg34
g5
ssS'BUCHANAN HAROLD G'
p357
(dp358
g3
I1088
sg4
g5
sg6
I600
sg7
I00
sg8
g5
sg9
S'john.buchanan@enron.com'
p359
sg11
I304805
sg12
I0
sg13
I2
sg14
g5
sg15
I61512432289
sg16
I23
sg17
g5
sg18
I125
sg19
I1215
sg20
g5
sg21
F0.0
sg22
I500000
sg23
I1014505
sg24
I92906088025
sg25
I0
sg26
I250000000000
sg27
I0
sg28
I1029220395025
sg29
I189041
sg30
I248017
sg31
I1054637
sg32
I28318240160460125
sg33
F0.0
sg34
I825464
ssS'YEAP SOON'
p360
(dp361
g3
I0
sg4
g5
sg6
I55097
sg7
I00
sg8
g5
sg9
g5
sg11
g5
sg12
I0
sg13
I0
sg14
g5
sg15
I0
sg16
g5
sg17
g5
sg18
I0
sg19
g5
sg20
g5
sg21
I0
sg22
g5
sg23
I192758
sg24
I0
sg25
I0
sg26
I0
sg27
I0
sg28
I37155646564
sg29
g5
sg30
g5
sg31
I55097
sg32
I0
sg33
I0
sg34
I192758
ssS'MURRAY JULIA H'
p362
(dp363
g3
I2192
sg4
g5
sg6
I57580
sg7
I00
sg8
g5
sg9
S'julia.murray@enron.com'
p364
sg11
I125000
sg12
I13
sg13
I1
sg14
g5
sg15
I52571152656
sg16
I395
sg17
g5
sg18
I45
sg19
I330
sg20
g5
sg21
F0.044444444444444446
sg22
I400000
sg23
I597461
sg24
I15625000000
sg25
I11
sg26
I160000000000
sg27
I2
sg28
I356959646521
sg29
I196983
sg30
I229284
sg31
I812194
sg32
I1953125000000000
sg33
F0.005018248175182482
sg34
I400478
ssS'GARLAND C KEVIN'
p365
(dp366
g3
I209
sg4
g5
sg6
I48405
sg7
I00
sg8
g5
sg9
S'kevin.garland@enron.com'
p367
sg11
I375304
sg12
I37
sg13
I3
sg14
g5
sg15
I53798946916
sg16
I178
sg17
g5
sg18
I44
sg19
I60814
sg20
g5
sg21
F0.6136363636363636
sg22
I850000
sg23
I896153
sg24
I140853092416
sg25
I10
sg26
I722500000000
sg27
I27
sg28
I803090199409
sg29
I259907
sg30
I231946
sg31
I1566469
sg32
I52862728996094464
sg33
F0.04784688995215311
sg34
I636246
ssS'DODSON KEITH'
p368
(dp369
g3
I176
sg4
g5
sg6
I28164
sg7
I00
sg8
g5
sg9
S'keith.dodson@enron.com'
p370
sg11
g5
sg12
I13
sg13
I0
sg14
g5
sg15
I48842326009
sg16
I114
sg17
g5
sg18
I14
sg19
I774
sg20
g5
sg21
F0.21428571428571427
sg22
I70000
sg23
g5
sg24
I0
sg25
I10
sg26
I4900000000
sg27
I3
sg28
I0
sg29
g5
sg30
I221003
sg31
I319941
sg32
I0
sg33
F0.056818181818181816
sg34
g5
ssS'YEAGER F SCOTT'
p371
(dp372
g3
I0
sg4
g5
sg6
I53947
sg7
I01
sg8
g5
sg9
S'scott.yeager@enron.com'
p373
sg11
g5
sg12
I0
sg13
I0
sg14
g5
sg15
I25091510409
sg16
g5
sg17
g5
sg18
I0
sg19
I147950
sg20
g5
sg21
I0
sg22
g5
sg23
I11884758
sg24
I0
sg25
I0
sg26
I0
sg27
I0
sg28
I141247472718564
sg29
I3576206
sg30
I158403
sg31
I360300
sg32
I0
sg33
I0
sg34
I8308552
ssS'HIRKO JOSEPH'
p374
(dp375
g3
I0
sg4
I10259
sg6
I77978
sg7
I01
sg8
g5
sg9
S'joe.hirko@enron.com'
p376
sg11
g5
sg12
I0
sg13
I0
sg14
g5
sg15
I0
sg16
g5
sg17
g5
sg18
I0
sg19
I2856
sg20
g5
sg21
I0
sg22
g5
sg23
I30766064
sg24
I0
sg25
I0
sg26
I0
sg27
I0
sg28
I946550694052096
sg29
g5
sg30
g5
sg31
I91093
sg32
I0
sg33
I0
sg34
I30766064
ssS'DIETRICH JANET R'
p377
(dp378
g3
I2572
sg4
g5
sg6
I3475
sg7
I00
sg8
g5
sg9
S'janet.dietrich@enron.com'
p379
sg11
I556416
sg12
I319
sg13
I2
sg14
g5
sg15
I62550010000
sg16
I1902
sg17
g5
sg18
I63
sg19
I473
sg20
g5
sg21
F0.2222222222222222
sg22
I600000
sg23
I1865087
sg24
I309598765056
sg25
I305
sg26
I360000000000
sg27
I14
sg28
I3478549517569
sg29
I315068
sg30
I250100
sg31
I1410464
sg32
I172265706457399296
sg33
F0.11858475894245724
sg34
I1550019
ssS'DERRICK JR. JAMES V'
p380
(dp381
g3
I2181
sg4
g5
sg6
I51124
sg7
I00
sg8
I-1284000
sg9
S'james.derrick@enron.com'
p382
sg11
I484000
sg12
I84
sg13
I1
sg14
I-1787380
sg15
I242433140625
sg16
I1401
sg17
g5
sg18
I909
sg19
I7482
sg20
g5
sg21
F0.022002200220022004
sg22
I800000
sg23
I8831913
sg24
I234256000000
sg25
I64
sg26
I640000000000
sg27
I20
sg28
I78002687239569
sg29
I1787380
sg30
I492375
sg31
I550981
sg32
I113379904000000000
sg33
F0.029344337459880788
sg34
I8831913
ssS'FREVERT MARK A'
p383
(dp384
g3
I3275
sg4
I6426990
sg6
I86987
sg7
I00
sg8
I-3367011
sg9
S'mark.frevert@enron.com'
p385
sg11
I1617011
sg12
I248
sg13
I1
sg14
g5
sg15
I1125576708624
sg16
I2979
sg17
I2000000
sg18
I21
sg19
I7427621
sg20
g5
sg21
F0.2857142857142857
sg22
I2000000
sg23
I14622185
sg24
I2614724574121
sg25
I242
sg26
I4000000000000
sg27
I6
sg28
I213808294174225
sg29
I4188667
sg30
I1060932
sg31
I17252530
sg32
I4228038398323972331
sg33
F0.07389312977099237
sg34
I10433518
ssS'PAI LOU L'
p386
(dp387
g3
I0
sg4
g5
sg6
I32047
sg7
I00
sg8
g5
sg9
S'lou.pai@enron.com'
p388
sg11
g5
sg12
I0
sg13
I3
sg14
g5
sg15
I68580610641
sg16
g5
sg17
g5
sg18
I0
sg19
I1829457
sg20
g5
sg21
I0
sg22
I1000000
sg23
I23817930
sg24
I0
sg25
I0
sg26
I1000000000000
sg27
I0
sg28
I567293789484900
sg29
I8453763
sg30
I261879
sg31
I3123383
sg32
I0
sg33
I0
sg34
I15364167
ssS'BAY FRANKLIN R'
p389
(dp390
g3
I0
sg4
I260455
sg6
I129142
sg7
I00
sg8
I-201641
sg9
S'frank.bay@enron.com'
p391
sg11
g5
sg12
I0
sg13
I1
sg14
I-82782
sg15
I57442188241
sg16
g5
sg17
g5
sg18
I0
sg19
I69
sg20
g5
sg21
I0
sg22
I400000
sg23
I63014
sg24
I0
sg25
I0
sg26
I160000000000
sg27
I0
sg28
I3970764196
sg29
I145796
sg30
I239671
sg31
I827696
sg32
I0
sg33
I0
sg34
g5
ssS'HAYSLETT RODERICK J'
p392
(dp393
g3
I2649
sg4
g5
sg6
g5
sg7
I00
sg8
g5
sg9
S'rod.hayslett@enron.com'
p394
sg11
g5
sg12
I73
sg13
I0
sg14
g5
sg15
I0
sg16
I571
sg17
g5
sg18
I1061
sg19
g5
sg20
g5
sg21
F0.03581526861451461
sg22
g5
sg23
I346663
sg24
I0
sg25
I35
sg26
I0
sg27
I38
sg28
I120175235569
sg29
I346663
sg30
g5
sg31
g5
sg32
I0
sg33
F0.01321253303133258
sg34
g5
ssS'FUGH JOHN L'
p395
(dp396
g3
I0
sg4
I50591
sg6
g5
sg7
I00
sg8
g5
sg9
g5
sg11
g5
sg12
I0
sg13
I0
sg14
g5
sg15
I0
sg16
g5
sg17
g5
sg18
I0
sg19
g5
sg20
g5
sg21
I0
sg22
g5
sg23
I176378
sg24
I0
sg25
I0
sg26
I0
sg27
I0
sg28
I31109198884
sg29
g5
sg30
g5
sg31
I50591
sg32
I0
sg33
I0
sg34
I176378
ssS'FALLON JAMES B'
p397
(dp398
g3
I1755
sg4
g5
sg6
I95924
sg7
I00
sg8
g5
sg9
S'jim.fallon@enron.com'
p399
sg11
I374347
sg12
I79
sg13
I8
sg14
g5
sg15
I92773849744
sg16
I1604
sg17
g5
sg18
I75
sg19
I401481
sg20
g5
sg21
F0.49333333333333335
sg22
I2500000
sg23
I2332399
sg24
I140135676409
sg25
I42
sg26
I6250000000000
sg27
I37
sg28
I5440085095201
sg29
I1392142
sg30
I304588
sg31
I3676340
sg32
I52459370056679923
sg33
F0.023931623931623933
sg34
I940257
ssS'KOENIG MARK E'
p400
(dp401
g3
I2374
sg4
g5
sg6
I127017
sg7
I01
sg8
g5
sg9
S'mark.koenig@enron.com'
p402
sg11
I300000
sg12
I68
sg13
I2
sg14
g5
sg15
I96066522916
sg16
I2271
sg17
g5
sg18
I61
sg19
I150458
sg20
g5
sg21
F0.2459016393442623
sg22
I700000
sg23
I1920055
sg24
I90000000000
sg25
I53
sg26
I490000000000
sg27
I15
sg28
I3686611203025
sg29
I1248318
sg30
I309946
sg31
I1587421
sg32
I27000000000000000
sg33
F0.02232518955349621
sg34
I671737
ssS'SAVAGE FRANK'
p403
(dp404
g3
I0
sg4
g5
sg6
g5
sg7
I00
sg8
I-121284
sg9
g5
sg11
g5
sg12
I0
sg13
I0
sg14
g5
sg15
I0
sg16
g5
sg17
g5
sg18
I0
sg19
g5
sg20
I125034
sg21
I0
sg22
g5
sg23
g5
sg24
I0
sg25
I0
sg26
I0
sg27
I0
sg28
I0
sg29
g5
sg30
g5
sg31
I3750
sg32
I0
sg33
I0
sg34
g5
ssS'IZZO LAWRENCE L'
p405
(dp406
g3
I496
sg4
g5
sg6
I28093
sg7
I00
sg8
g5
sg9
S'larry.izzo@enron.com'
p407
sg11
I312500
sg12
I33
sg13
I0
sg14
g5
sg15
I7271655076
sg16
I437
sg17
g5
sg18
I19
sg19
I1553729
sg20
g5
sg21
F0.2631578947368421
sg22
g5
sg23
I5819980
sg24
I97656250000
sg25
I28
sg26
I0
sg27
I5
sg28
I33872167200400
sg29
I3654808
sg30
I85274
sg31
I1979596
sg32
I30517578125000000
sg33
F0.056451612903225805
sg34
I2165172
ssS'TILNEY ELIZABETH A'
p408
(dp409
g3
I460
sg4
g5
sg6
g5
sg7
I00
sg8
I-575000
sg9
S'elizabeth.tilney@enron.com'
p410
sg11
I275000
sg12
I21
sg13
I1
sg14
g5
sg15
I61176086244
sg16
I379
sg17
g5
sg18
I19
sg19
I152055
sg20
g5
sg21
F0.5789473684210527
sg22
I300000
sg23
I1168042
sg24
I75625000000
sg25
I10
sg26
I90000000000
sg27
I11
sg28
I1364322113764
sg29
I576792
sg30
I247338
sg31
I399393
sg32
I20796875000000000
sg33
F0.021739130434782608
sg34
I591250
ssS'MARTIN AMANDA K'
p411
(dp412
g3
I1522
sg4
I85430
sg6
I8211
sg7
I00
sg8
g5
sg9
S'a..martin@enron.com'
p413
sg11
I5145434
sg12
I8
sg13
I0
sg14
g5
sg15
I122141163169
sg16
I477
sg17
g5
sg18
I230
sg19
I2818454
sg20
g5
sg21
F0.0
sg22
g5
sg23
I2070306
sg24
I26475491048356
sg25
I8
sg26
I0
sg27
I0
sg28
I4286166933636
sg29
g5
sg30
I349487
sg31
I8407016
sg32
L136227891806906606504L
sg33
F0.005256241787122208
sg34
I2070306
ssS'BUY RICHARD B'
p414
(dp415
g3
I3523
sg4
I649584
sg6
g5
sg7
I00
sg8
I-694862
sg9
S'rick.buy@enron.com'
p416
sg11
I769862
sg12
I227
sg13
I2
sg14
g5
sg15
I109260658116
sg16
I2333
sg17
g5
sg18
I1053
sg19
I400572
sg20
g5
sg21
F0.06742640075973409
sg22
I900000
sg23
I3444470
sg24
I592687499044
sg25
I156
sg26
I810000000000
sg27
I71
sg28
I11864373580900
sg29
I901657
sg30
I330546
sg31
I2355702
sg32
I456287583389011928
sg33
F0.04428044280442804
sg34
I2542813
ssS'GRAMM WENDY L'
p417
(dp418
g3
I0
sg4
g5
sg6
g5
sg7
I00
sg8
g5
sg9
g5
sg11
g5
sg12
I0
sg13
I0
sg14
g5
sg15
I0
sg16
g5
sg17
g5
sg18
I0
sg19
g5
sg20
I119292
sg21
I0
sg22
g5
sg23
g5
sg24
I0
sg25
I0
sg26
I0
sg27
I0
sg28
I0
sg29
g5
sg30
g5
sg31
I119292
sg32
I0
sg33
I0
sg34
g5
ssS'CAUSEY RICHARD A'
p419
(dp420
g3
I1892
sg4
g5
sg6
I30674
sg7
I01
sg8
I-235000
sg9
S'richard.causey@enron.com'
p421
sg11
I350000
sg12
I70
sg13
I2
sg14
g5
sg15
I172381905721
sg16
I1585
sg17
g5
sg18
I49
sg19
I307895
sg20
g5
sg21
F0.24489795918367346
sg22
I1000000
sg23
I2502063
sg24
I122500000000
sg25
I58
sg26
I1000000000000
sg27
I12
sg28
I6260319255969
sg29
I2502063
sg30
I415189
sg31
I1868758
sg32
I42875000000000000
sg33
F0.0306553911205074
sg34
g5
ssS'TAYLOR MITCHELL S'
p422
(dp423
g3
I533
sg4
I227449
sg6
g5
sg7
I00
sg8
g5
sg9
S'mitchell.taylor@enron.com'
p424
sg11
g5
sg12
I0
sg13
I2
sg14
g5
sg15
I70338465796
sg16
I300
sg17
g5
sg18
I29
sg19
g5
sg20
g5
sg21
F0.0
sg22
I600000
sg23
I3745048
sg24
I0
sg25
I0
sg26
I360000000000
sg27
I0
sg28
I14025384522304
sg29
I563798
sg30
I265214
sg31
I1092663
sg32
I0
sg33
F0.0
sg34
I3181250
ssS'DONAHUE JR JEFFREY M'
p425
(dp426
g3
I865
sg4
g5
sg6
I96268
sg7
I00
sg8
I-300000
sg9
S'jeff.donahue@enron.com'
p427
sg11
g5
sg12
I199
sg13
I2
sg14
g5
sg15
I77618517201
sg16
I772
sg17
g5
sg18
I22
sg19
I891
sg20
g5
sg21
F0.5
sg22
I800000
sg23
I1080988
sg24
I0
sg25
I188
sg26
I640000000000
sg27
I11
sg28
I1168535056144
sg29
I315068
sg30
I278601
sg31
I875760
sg32
I0
sg33
F0.21734104046242775
sg34
I765920
ssS'GLISAN JR BEN F'
p428
(dp429
g3
I873
sg4
g5
sg6
I125978
sg7
I01
sg8
g5
sg9
S'ben.glisan@enron.com'
p430
sg11
I71023
sg12
I58
sg13
I2
sg14
g5
sg15
I75611250625
sg16
I874
sg17
g5
sg18
I16
sg19
I200308
sg20
g5
sg21
F0.375
sg22
I600000
sg23
I778546
sg24
I5044266529
sg25
I52
sg26
I360000000000
sg27
I6
sg28
I606133874116
sg29
I393818
sg30
I274975
sg31
I1272284
sg32
I358258941689167
sg33
F0.05956471935853379
sg34
I384728
ss.