(lp0
S'poi'
p1
aS'salary'
p2
aS'deferral_payments'
p3
aS'total_payments'
p4
aS'loan_advances'
p5
aS'bonus'
p6
aS'deferred_income'
p7
aS'total_stock_value'
p8
aS'expenses'
p9
aS'exercised_stock_options'
p10
aS'other'
p11
aS'long_term_incentive'
p12
aS'restricted_stock'
p13
aS'director_fees'
p14
aS'to_messages'
p15
aS'from_poi_to_this_person'
p16
aS'from_messages'
p17
aS'from_this_person_to_poi'
p18
aS'shared_receipt_with_poi'
p19
aS'ratio_of_to_poi_messages'
p20
aS'ratio_of_from_poi_messages'
p21
aS'total_poi_messages'
p22
aS'salary_square'
p23
aS'bonus_square'
p24
aS'total_stock_value_square'
p25
aS'incentive_cube'
p26
aS'bonus_salary_ratio'
p27
a.